target datalayout = "e-m:e-p270:32:32-p271:32:32-p272:64:64-i64:64-i128:128-f80:128-n8:16:32:64-S128"
target triple = "x86_64-pc-linux-gnu"

%struct._cmsStage_struct = type { ptr, i32, i32, i32, i32, ptr, ptr, ptr, ptr, ptr }
%struct._cmsStageToneCurvesData = type { i32, ptr }

; Function Attrs: nounwind uwtable
define internal void @CurveSetElemTypeFree(ptr noundef %0) #0 {
  %2 = alloca ptr, align 8
  %3 = alloca ptr, align 8
  %4 = alloca i32, align 4
  store ptr %0, ptr %2, align 8
  %5 = load ptr, ptr %2, align 8
  %6 = getelementptr inbounds %struct._cmsStage_struct, ptr %5, i32 0, i32 8
  %7 = load ptr, ptr %6, align 8
  store ptr %7, ptr %3, align 8
  %8 = load ptr, ptr %3, align 8
  %9 = icmp eq ptr %8, null
  br i1 %9, label %10, label %11

10:                                               ; preds = %1
  br label %56

11:                                               ; preds = %1
  %12 = load ptr, ptr %3, align 8
  %13 = getelementptr inbounds %struct._cmsStageToneCurvesData, ptr %12, i32 0, i32 1
  %14 = load ptr, ptr %13, align 8
  %15 = icmp ne ptr %14, null
  br i1 %15, label %16, label %45

16:                                               ; preds = %11
  store i32 0, ptr %4, align 4
  br label %17

17:                                               ; preds = %41, %16
  %18 = load i32, ptr %4, align 4
  %19 = load ptr, ptr %3, align 8
  %20 = getelementptr inbounds %struct._cmsStageToneCurvesData, ptr %19, i32 0, i32 0
  %21 = load i32, ptr %20, align 8
  %22 = icmp ult i32 %18, %21
  br i1 %22, label %23, label %44

23:                                               ; preds = %17
  %24 = load ptr, ptr %3, align 8
  %25 = getelementptr inbounds %struct._cmsStageToneCurvesData, ptr %24, i32 0, i32 1
  %26 = load ptr, ptr %25, align 8
  %27 = load i32, ptr %4, align 4
  %28 = zext i32 %27 to i64
  %29 = getelementptr inbounds ptr, ptr %26, i64 %28
  %30 = load ptr, ptr %29, align 8
  %31 = icmp ne ptr %30, null
  br i1 %31, label %32, label %40

32:                                               ; preds = %23
  %33 = load ptr, ptr %3, align 8
  %34 = getelementptr inbounds %struct._cmsStageToneCurvesData, ptr %33, i32 0, i32 1
  %35 = load ptr, ptr %34, align 8
  %36 = load i32, ptr %4, align 4
  %37 = zext i32 %36 to i64
  %38 = getelementptr inbounds ptr, ptr %35, i64 %37
  %39 = load ptr, ptr %38, align 8
  call void @cmsFreeToneCurve(ptr noundef %39)
  br label %40

40:                                               ; preds = %32, %23
  br label %41

41:                                               ; preds = %40
  %42 = load i32, ptr %4, align 4
  %43 = add i32 %42, 1
  store i32 %43, ptr %4, align 4
  br label %17, !llvm.loop !14

44:                                               ; preds = %17
  br label %45

45:                                               ; preds = %44, %11
  %46 = load ptr, ptr %2, align 8
  %47 = getelementptr inbounds %struct._cmsStage_struct, ptr %46, i32 0, i32 0
  %48 = load ptr, ptr %47, align 8
  %49 = load ptr, ptr %3, align 8
  %50 = getelementptr inbounds %struct._cmsStageToneCurvesData, ptr %49, i32 0, i32 1
  %51 = load ptr, ptr %50, align 8
  call void @_cmsFree(ptr noundef %48, ptr noundef %51)
  %52 = load ptr, ptr %2, align 8
  %53 = getelementptr inbounds %struct._cmsStage_struct, ptr %52, i32 0, i32 0
  %54 = load ptr, ptr %53, align 8
  %55 = load ptr, ptr %3, align 8
  call void @_cmsFree(ptr noundef %54, ptr noundef %55)
  br label %56

56:                                               ; preds = %45, %10
  ret void
}