; Function Attrs: nounwind uwtable
define internal void @CurveSetElemTypeFree(ptr nocapture noundef readonly %0) #0 {
  %2 = getelementptr inbounds i8, ptr %0, i64 48
  %3 = load ptr, ptr %2, align 8
  %4 = icmp eq ptr %3, null
  br i1 %4, label %21, label %5

5:                                                ; preds = %1
  %6 = getelementptr inbounds i8, ptr %3, i64 8
  %7 = load ptr, ptr %6, align 8
  %.not = icmp eq ptr %7, null
  br i1 %.not, label %.loopexit, label %.preheader

.preheader:                                       ; preds = %5
  %8 = load i32, ptr %3, align 8
  %.not17 = icmp eq i32 %8, 0
  br i1 %.not17, label %.loopexit, label %.lr.ph

.lr.ph:                                           ; preds = %.preheader, %14
  %9 = phi i32 [ %15, %14 ], [ %8, %.preheader ]
  %indvars.iv = phi i64 [ %indvars.iv.next, %14 ], [ 0, %.preheader ]
  %10 = load ptr, ptr %6, align 8
  %11 = getelementptr inbounds ptr, ptr %10, i64 %indvars.iv
  %12 = load ptr, ptr %11, align 8
  %.not15 = icmp eq ptr %12, null
  br i1 %.not15, label %14, label %13

13:                                               ; preds = %.lr.ph
  tail call void @cmsFreeToneCurve(ptr noundef nonnull %12) #18
  %.pre = load i32, ptr %3, align 8
  br label %14

14:                                               ; preds = %.lr.ph, %13
  %15 = phi i32 [ %9, %.lr.ph ], [ %.pre, %13 ]
  %indvars.iv.next = add nuw nsw i64 %indvars.iv, 1
  %16 = zext i32 %15 to i64
  %17 = icmp ult i64 %indvars.iv.next, %16
  br i1 %17, label %.lr.ph, label %.loopexit.loopexit, !llvm.loop !14

.loopexit.loopexit:                               ; preds = %14
  %.pre19 = load ptr, ptr %6, align 8
  br label %.loopexit

.loopexit:                                        ; preds = %.loopexit.loopexit, %.preheader, %5
  %18 = phi ptr [ %.pre19, %.loopexit.loopexit ], [ %7, %.preheader ], [ null, %5 ]
  %19 = load ptr, ptr %0, align 8
  tail call void @_cmsFree(ptr noundef %19, ptr noundef %18) #18
  %20 = load ptr, ptr %0, align 8
  tail call void @_cmsFree(ptr noundef %20, ptr noundef nonnull %3) #18
  br label %21

21:                                               ; preds = %1, %.loopexit
  ret void
}